target datalayout = "e-m:e-p270:32:32-p271:32:32-p272:64:64-i64:64-i128:128-f80:128-n8:16:32:64-S128"
target triple = "x86_64-pc-linux-gnu"

%struct.PyVarObject = type { %struct._object, i64 }
%struct._object = type { i64, ptr }
%struct._typeobject = type { %struct.PyVarObject, ptr, i64, i64, ptr, i64, ptr, ptr, ptr, ptr, ptr, ptr, ptr, ptr, ptr, ptr, ptr, ptr, ptr, i64, ptr, ptr, ptr, ptr, i64, ptr, ptr, ptr, ptr, ptr, ptr, ptr, ptr, ptr, i64, ptr, ptr, ptr, ptr, ptr, ptr, ptr, ptr, ptr, ptr, ptr, i32, ptr, ptr }
%struct.PyFloatObject = type { %struct._object, double }

@PyFloat_Type = external global %struct._typeobject, align 8

; Function Attrs: inlinehint mustprogress nounwind uwtable
define internal noundef i32 @_ZL11_Py_IS_TYPEPK7_objectPK11_typeobject(ptr noundef %0, ptr noundef %1) #9 {
  %3 = alloca ptr, align 8
  %4 = alloca ptr, align 8
  store ptr %0, ptr %3, align 8
  store ptr %1, ptr %4, align 8
  %5 = load ptr, ptr %3, align 8
  %6 = getelementptr inbounds nuw %struct._object, ptr %5, i32 0, i32 1
  %7 = load ptr, ptr %6, align 8
  %8 = load ptr, ptr %4, align 8
  %9 = icmp eq ptr %7, %8
  %10 = zext i1 %9 to i32
  ret i32 %10
}

; Function Attrs: mustprogress nounwind uwtable
define noundef zeroext i1 @_ZN8nanobind6detail8load_f32EP7_objecthPf(ptr noundef %0, i8 noundef zeroext %1, ptr noundef %2) #4 personality ptr @__gxx_personality_v0 {
  %4 = alloca i1, align 1
  %5 = alloca ptr, align 8
  %6 = alloca i8, align 1
  %7 = alloca ptr, align 8
  %8 = alloca i8, align 1
  %9 = alloca i8, align 1
  %10 = alloca double, align 8
  %11 = alloca float, align 4
  %12 = alloca i32, align 4
  %13 = alloca double, align 8
  %14 = alloca float, align 4
  store ptr %0, ptr %5, align 8
  store i8 %1, ptr %6, align 1
  store ptr %2, ptr %7, align 8
  call void @llvm.lifetime.start.p0(i64 1, ptr %8) #20
  %15 = load ptr, ptr %5, align 8
  %16 = invoke noundef i32 @_ZL11_Py_IS_TYPEPK7_objectPK11_typeobject(ptr noundef %15, ptr noundef @PyFloat_Type)
          to label %17 unwind label %98

17:                                               ; preds = %3
  %18 = icmp ne i32 %16, 0
  %19 = zext i1 %18 to i8
  store i8 %19, ptr %8, align 1
  call void @llvm.lifetime.start.p0(i64 1, ptr %9) #20
  %20 = load i8, ptr %6, align 1
  %21 = zext i8 %20 to i32
  %22 = and i32 %21, 1
  %23 = icmp ne i32 %22, 0
  %24 = zext i1 %23 to i8
  store i8 %24, ptr %9, align 1
  %25 = load i8, ptr %8, align 1, !range !6, !noundef !7
  %26 = trunc i8 %25 to i1
  %27 = zext i1 %26 to i64
  %28 = call i64 @llvm.expect.i64(i64 %27, i64 1)
  %29 = icmp ne i64 %28, 0
  br i1 %29, label %30, label %52

30:                                               ; preds = %17
  call void @llvm.lifetime.start.p0(i64 8, ptr %10) #20
  %31 = load ptr, ptr %5, align 8
  %32 = getelementptr inbounds nuw %struct.PyFloatObject, ptr %31, i32 0, i32 1
  %33 = load double, ptr %32, align 8
  store double %33, ptr %10, align 8
  call void @llvm.lifetime.start.p0(i64 4, ptr %11) #20
  %34 = load double, ptr %10, align 8
  %35 = fptrunc double %34 to float
  store float %35, ptr %11, align 4
  %36 = load i8, ptr %9, align 1, !range !6, !noundef !7
  %37 = trunc i8 %36 to i1
  br i1 %37, label %47, label %38

38:                                               ; preds = %30
  %39 = load float, ptr %11, align 4
  %40 = fpext float %39 to double
  %41 = load double, ptr %10, align 8
  %42 = fcmp oeq double %40, %41
  br i1 %42, label %47, label %43

43:                                               ; preds = %38
  %44 = load double, ptr %10, align 8
  %45 = load double, ptr %10, align 8
  %46 = fcmp une double %44, %45
  br i1 %46, label %47, label %50

47:                                               ; preds = %43, %38, %30
  %48 = load float, ptr %11, align 4
  %49 = load ptr, ptr %7, align 8
  store float %48, ptr %49, align 4
  store i1 true, ptr %4, align 1
  store i32 1, ptr %12, align 4
  br label %51

50:                                               ; preds = %43
  store i1 false, ptr %4, align 1
  store i32 1, ptr %12, align 4
  br label %51

51:                                               ; preds = %50, %47
  call void @llvm.lifetime.end.p0(i64 4, ptr %11) #20
  call void @llvm.lifetime.end.p0(i64 8, ptr %10) #20
  br label %96

52:                                               ; preds = %17
  store i8 0, ptr %8, align 1
  %53 = load i8, ptr %8, align 1, !range !6, !noundef !7
  %54 = trunc i8 %53 to i1
  br i1 %54, label %58, label %55

55:                                               ; preds = %52
  %56 = load i8, ptr %9, align 1, !range !6, !noundef !7
  %57 = trunc i8 %56 to i1
  br i1 %57, label %58, label %95

58:                                               ; preds = %55, %52
  call void @llvm.lifetime.start.p0(i64 8, ptr %13) #20
  %59 = load ptr, ptr %5, align 8
  %60 = invoke double @PyFloat_AsDouble(ptr noundef %59)
          to label %61 unwind label %98

61:                                               ; preds = %58
  store double %60, ptr %13, align 8
  %62 = load double, ptr %13, align 8
  %63 = fcmp une double %62, -1.000000e+00
  br i1 %63, label %68, label %64

64:                                               ; preds = %61
  %65 = invoke ptr @PyErr_Occurred()
          to label %66 unwind label %98

66:                                               ; preds = %64
  %67 = icmp ne ptr %65, null
  br i1 %67, label %89, label %68

68:                                               ; preds = %66, %61
  call void @llvm.lifetime.start.p0(i64 4, ptr %14) #20
  %69 = load double, ptr %13, align 8
  %70 = fptrunc double %69 to float
  store float %70, ptr %14, align 4
  %71 = load i8, ptr %9, align 1, !range !6, !noundef !7
  %72 = trunc i8 %71 to i1
  br i1 %72, label %82, label %73

73:                                               ; preds = %68
  %74 = load float, ptr %14, align 4
  %75 = fpext float %74 to double
  %76 = load double, ptr %13, align 8
  %77 = fcmp oeq double %75, %76
  br i1 %77, label %82, label %78

78:                                               ; preds = %73
  %79 = load double, ptr %13, align 8
  %80 = load double, ptr %13, align 8
  %81 = fcmp une double %79, %80
  br i1 %81, label %82, label %85

82:                                               ; preds = %78, %73, %68
  %83 = load float, ptr %14, align 4
  %84 = load ptr, ptr %7, align 8
  store float %83, ptr %84, align 4
  store i1 true, ptr %4, align 1
  store i32 1, ptr %12, align 4
  br label %86

85:                                               ; preds = %78
  store i32 0, ptr %12, align 4
  br label %86

86:                                               ; preds = %85, %82
  call void @llvm.lifetime.end.p0(i64 4, ptr %14) #20
  %87 = load i32, ptr %12, align 4
  switch i32 %87, label %92 [
    i32 0, label %88
  ]

88:                                               ; preds = %86
  br label %91

89:                                               ; preds = %66
  invoke void @PyErr_Clear()
          to label %90 unwind label %98

90:                                               ; preds = %89
  br label %91

91:                                               ; preds = %90, %88
  store i32 0, ptr %12, align 4
  br label %92

92:                                               ; preds = %91, %86
  call void @llvm.lifetime.end.p0(i64 8, ptr %13) #20
  %93 = load i32, ptr %12, align 4
  switch i32 %93, label %96 [
    i32 0, label %94
  ]

94:                                               ; preds = %92
  br label %95

95:                                               ; preds = %94, %55
  store i1 false, ptr %4, align 1
  store i32 1, ptr %12, align 4
  br label %96

96:                                               ; preds = %95, %92, %51
  call void @llvm.lifetime.end.p0(i64 1, ptr %9) #20
  call void @llvm.lifetime.end.p0(i64 1, ptr %8) #20
  %97 = load i1, ptr %4, align 1
  ret i1 %97

98:                                               ; preds = %89, %64, %58, %3
  %99 = landingpad { ptr, i32 }
          catch ptr null
  %100 = extractvalue { ptr, i32 } %99, 0
  call void @__clang_call_terminate(ptr %100) #22
  unreachable
}