; Function Attrs: mustprogress nounwind uwtable
define noundef zeroext i1 @_ZN8nanobind6detail8load_f32EP7_objecthPf(ptr noundef %0, i8 noundef zeroext %1, ptr noundef writeonly captures(none) %2) local_unnamed_addr #9 personality ptr @__gxx_personality_v0 {
  %4 = getelementptr i8, ptr %0, i64 8
  %.val = load ptr, ptr %4, align 8
  %.not = icmp eq ptr %.val, @PyFloat_Type
  %5 = and i8 %1, 1
  %.not31 = icmp ne i8 %5, 0
  br i1 %.not, label %6, label %14, !prof !4

6:                                                ; preds = %3
  %7 = getelementptr inbounds nuw i8, ptr %0, i64 16
  %8 = load double, ptr %7, align 8
  %9 = fptrunc double %8 to float
  %10 = fpext float %9 to double
  %11 = fcmp oeq double %8, %10
  %12 = fcmp uno double %8, 0.000000e+00
  %13 = or i1 %12, %11
  %or.cond34 = select i1 %.not31, i1 true, i1 %13
  br i1 %or.cond34, label %.sink.split, label %24

14:                                               ; preds = %3
  br i1 %.not31, label %15, label %24

15:                                               ; preds = %14
  %16 = invoke double @PyFloat_AsDouble(ptr noundef nonnull %0)
          to label %17 unwind label %25

17:                                               ; preds = %15
  %18 = fcmp une double %16, -1.000000e+00
  br i1 %18, label %.critedge, label %19

19:                                               ; preds = %17
  %20 = invoke ptr @PyErr_Occurred()
          to label %21 unwind label %25

21:                                               ; preds = %19
  %.not32 = icmp eq ptr %20, null
  br i1 %.not32, label %.critedge, label %23

.critedge:                                        ; preds = %21, %17
  %22 = fptrunc double %16 to float
  br label %.sink.split

23:                                               ; preds = %21
  invoke void @PyErr_Clear()
          to label %24 unwind label %25

.sink.split:                                      ; preds = %6, %.critedge
  %.sink = phi float [ %22, %.critedge ], [ %9, %6 ]
  store float %.sink, ptr %2, align 4
  br label %24

24:                                               ; preds = %.sink.split, %14, %23, %6
  %.1 = phi i1 [ false, %6 ], [ false, %23 ], [ false, %14 ], [ true, %.sink.split ]
  ret i1 %.1

25:                                               ; preds = %23, %19, %15
  %26 = landingpad { ptr, i32 }
          catch ptr null
  %27 = extractvalue { ptr, i32 } %26, 0
  tail call void @__clang_call_terminate(ptr %27) #29
  unreachable
}